; ModuleID = '29/1859.c'
source_filename = "29/1859.c"
target datalayout = "e-m:e-p270:32:32-p271:32:32-p272:64:64-i64:64-f80:128-n8:16:32:64-S128"
target triple = "x86_64-pc-linux-gnu"

@.str = private unnamed_addr constant [3 x i8] c"%d\00", align 1
@.str.1 = private unnamed_addr constant [6 x i8] c"%.3f\0A\00", align 1

; Function Attrs: noinline nounwind uwtable
define dso_local i32 @main() #0 {
  %1 = alloca i32, align 4
  %2 = alloca i32, align 4
  %3 = alloca [1000 x i32], align 16
  %4 = alloca i32, align 4
  %5 = alloca i32, align 4
  %6 = alloca [1000 x float], align 16
  %7 = alloca [1000 x float], align 16
  store i32 0, i32* %1, align 4
  %8 = call i32 (i8*, ...) @__isoc99_scanf(i8* getelementptr inbounds ([3 x i8], [3 x i8]* @.str, i64 0, i64 0), i32* %2)
  %9 = getelementptr inbounds [1000 x float], [1000 x float]* %6, i64 0, i64 1
  store float 1.000000e+00, float* %9, align 4
  %10 = getelementptr inbounds [1000 x float], [1000 x float]* %6, i64 0, i64 2
  store float 2.000000e+00, float* %10, align 8
  store i32 0, i32* %4, align 4
  br label %11

11:                                               ; preds = %67, %0
  %12 = load i32, i32* %4, align 4
  %13 = load i32, i32* %2, align 4
  %14 = icmp slt i32 %12, %13
  br i1 %14, label %15, label %70

15:                                               ; preds = %11
  %16 = load i32, i32* %4, align 4
  %17 = sext i32 %16 to i64
  %18 = getelementptr inbounds [1000 x i32], [1000 x i32]* %3, i64 0, i64 %17
  %19 = call i32 (i8*, ...) @__isoc99_scanf(i8* getelementptr inbounds ([3 x i8], [3 x i8]* @.str, i64 0, i64 0), i32* %18)
  %20 = load i32, i32* %4, align 4
  %21 = sext i32 %20 to i64
  %22 = getelementptr inbounds [1000 x float], [1000 x float]* %7, i64 0, i64 %21
  store float 0.000000e+00, float* %22, align 4
  store i32 1, i32* %5, align 4
  br label %23

23:                                               ; preds = %63, %15
  %24 = load i32, i32* %5, align 4
  %25 = load i32, i32* %4, align 4
  %26 = sext i32 %25 to i64
  %27 = getelementptr inbounds [1000 x i32], [1000 x i32]* %3, i64 0, i64 %26
  %28 = load i32, i32* %27, align 4
  %29 = icmp sle i32 %24, %28
  br i1 %29, label %30, label %66

30:                                               ; preds = %23
  %31 = load i32, i32* %4, align 4
  %32 = sext i32 %31 to i64
  %33 = getelementptr inbounds [1000 x float], [1000 x float]* %7, i64 0, i64 %32
  %34 = load float, float* %33, align 4
  %35 = load i32, i32* %5, align 4
  %36 = add nsw i32 %35, 1
  %37 = sext i32 %36 to i64
  %38 = getelementptr inbounds [1000 x float], [1000 x float]* %6, i64 0, i64 %37
  %39 = load float, float* %38, align 4
  %40 = load i32, i32* %5, align 4
  %41 = sext i32 %40 to i64
  %42 = getelementptr inbounds [1000 x float], [1000 x float]* %6, i64 0, i64 %41
  %43 = load float, float* %42, align 4
  %44 = fdiv float %39, %43
  %45 = fadd float %34, %44
  %46 = load i32, i32* %4, align 4
  %47 = sext i32 %46 to i64
  %48 = getelementptr inbounds [1000 x float], [1000 x float]* %7, i64 0, i64 %47
  store float %45, float* %48, align 4
  %49 = load i32, i32* %5, align 4
  %50 = sext i32 %49 to i64
  %51 = getelementptr inbounds [1000 x float], [1000 x float]* %6, i64 0, i64 %50
  %52 = load float, float* %51, align 4
  %53 = load i32, i32* %5, align 4
  %54 = add nsw i32 %53, 1
  %55 = sext i32 %54 to i64
  %56 = getelementptr inbounds [1000 x float], [1000 x float]* %6, i64 0, i64 %55
  %57 = load float, float* %56, align 4
  %58 = fadd float %52, %57
  %59 = load i32, i32* %5, align 4
  %60 = add nsw i32 %59, 2
  %61 = sext i32 %60 to i64
  %62 = getelementptr inbounds [1000 x float], [1000 x float]* %6, i64 0, i64 %61
  store float %58, float* %62, align 4
  br label %63

63:                                               ; preds = %30
  %64 = load i32, i32* %5, align 4
  %65 = add nsw i32 %64, 1
  store i32 %65, i32* %5, align 4
  br label %23

66:                                               ; preds = %23
  br label %67

67:                                               ; preds = %66
  %68 = load i32, i32* %4, align 4
  %69 = add nsw i32 %68, 1
  store i32 %69, i32* %4, align 4
  br label %11

70:                                               ; preds = %11
  store i32 0, i32* %4, align 4
  br label %71

71:                                               ; preds = %82, %70
  %72 = load i32, i32* %4, align 4
  %73 = load i32, i32* %2, align 4
  %74 = icmp slt i32 %72, %73
  br i1 %74, label %75, label %85

75:                                               ; preds = %71
  %76 = load i32, i32* %4, align 4
  %77 = sext i32 %76 to i64
  %78 = getelementptr inbounds [1000 x float], [1000 x float]* %7, i64 0, i64 %77
  %79 = load float, float* %78, align 4
  %80 = fpext float %79 to double
  %81 = call i32 (i8*, ...) @printf(i8* getelementptr inbounds ([6 x i8], [6 x i8]* @.str.1, i64 0, i64 0), double %80)
  br label %82

82:                                               ; preds = %75
  %83 = load i32, i32* %4, align 4
  %84 = add nsw i32 %83, 1
  store i32 %84, i32* %4, align 4
  br label %71

85:                                               ; preds = %71
  ret i32 0
}

declare dso_local i32 @__isoc99_scanf(i8*, ...) #1

declare dso_local i32 @printf(i8*, ...) #1


!llvm.module.flags = !{!0}
!llvm.ident = !{!1}

!0 = !{i32 1, !"wchar_size", i32 4}
!1 = !{!"clang version 10.0.0-4ubuntu1 "}
